target datalayout = "e-m:e-p270:32:32-p271:32:32-p272:64:64-i64:64-i128:128-f80:128-n8:16:32:64-S128"
target triple = "x86_64-pc-linux-gnu"

%struct.H5LT_file_image_ud_t = type { ptr, i64, ptr, i64, i32, ptr, i64, i32, i32, i32 }

; Function Attrs: nounwind uwtable
define internal i32 @udata_free(ptr noundef %0) #0 {
  %2 = alloca i32, align 4
  %3 = alloca ptr, align 8
  %4 = alloca ptr, align 8
  %5 = alloca i32, align 4
  store ptr %0, ptr %3, align 8, !tbaa !14
  call void @llvm.lifetime.start.p0(i64 8, ptr %4) #11
  %6 = load ptr, ptr %3, align 8, !tbaa !14
  store ptr %6, ptr %4, align 8, !tbaa !14
  %7 = load ptr, ptr %4, align 8, !tbaa !14
  %8 = getelementptr inbounds nuw %struct.H5LT_file_image_ud_t, ptr %7, i32 0, i32 8
  %9 = load i32, ptr %8, align 4, !tbaa !39
  %10 = and i32 %9, 2
  %11 = icmp ne i32 %10, 0
  br i1 %11, label %13, label %12

12:                                               ; preds = %1
  br label %31

13:                                               ; preds = %1
  %14 = load ptr, ptr %4, align 8, !tbaa !14
  %15 = getelementptr inbounds nuw %struct.H5LT_file_image_ud_t, ptr %14, i32 0, i32 9
  %16 = load i32, ptr %15, align 8, !tbaa !40
  %17 = icmp eq i32 %16, 0
  br i1 %17, label %18, label %19

18:                                               ; preds = %13
  br label %31

19:                                               ; preds = %13
  %20 = load ptr, ptr %4, align 8, !tbaa !14
  %21 = getelementptr inbounds nuw %struct.H5LT_file_image_ud_t, ptr %20, i32 0, i32 9
  %22 = load i32, ptr %21, align 8, !tbaa !40
  %23 = add nsw i32 %22, -1
  store i32 %23, ptr %21, align 8, !tbaa !40
  %24 = load ptr, ptr %4, align 8, !tbaa !14
  %25 = getelementptr inbounds nuw %struct.H5LT_file_image_ud_t, ptr %24, i32 0, i32 9
  %26 = load i32, ptr %25, align 8, !tbaa !40
  %27 = icmp eq i32 %26, 0
  br i1 %27, label %28, label %30

28:                                               ; preds = %19
  %29 = load ptr, ptr %4, align 8, !tbaa !14
  call void @free(ptr noundef %29) #11
  br label %30

30:                                               ; preds = %28, %19
  store i32 0, ptr %2, align 4
  store i32 1, ptr %5, align 4
  br label %32

31:                                               ; preds = %18, %12
  store i32 -1, ptr %2, align 4
  store i32 1, ptr %5, align 4
  br label %32

32:                                               ; preds = %31, %30
  call void @llvm.lifetime.end.p0(i64 8, ptr %4) #11
  %33 = load i32, ptr %2, align 4
  ret i32 %33
}