; Function Attrs: mustprogress nounwind willreturn memory(argmem: readwrite, inaccessiblemem: readwrite) uwtable
define internal range(i32 -1, 1) i32 @udata_free(ptr noundef captures(none) %0) #6 {
  %2 = getelementptr inbounds nuw i8, ptr %0, i64 60
  %3 = load i32, ptr %2, align 4, !tbaa !20
  %4 = and i32 %3, 2
  %.not = icmp eq i32 %4, 0
  br i1 %.not, label %13, label %5

5:                                                ; preds = %1
  %6 = getelementptr inbounds nuw i8, ptr %0, i64 64
  %7 = load i32, ptr %6, align 8, !tbaa !21
  %8 = icmp eq i32 %7, 0
  br i1 %8, label %13, label %9

9:                                                ; preds = %5
  %10 = add nsw i32 %7, -1
  store i32 %10, ptr %6, align 8, !tbaa !21
  %11 = icmp eq i32 %10, 0
  br i1 %11, label %12, label %13

12:                                               ; preds = %9
  tail call void @free(ptr noundef nonnull %0) #20
  br label %13

13:                                               ; preds = %1, %5, %9, %12
  %.0 = phi i32 [ 0, %12 ], [ 0, %9 ], [ -1, %5 ], [ -1, %1 ]
  ret i32 %.0
}